target datalayout = "e-m:e-p270:32:32-p271:32:32-p272:64:64-i64:64-i128:128-f80:128-n8:16:32:64-S128"
target triple = "x86_64-pc-linux-gnu"

%struct.iovec = type { ptr, i64 }

; Function Attrs: nounwind uwtable
define internal i32 @wolfSSL_write_internal(ptr noundef %0, ptr noundef %1, i64 noundef %2) #0 {
  %4 = alloca i32, align 4
  %5 = alloca ptr, align 8
  %6 = alloca ptr, align 8
  %7 = alloca i64, align 8
  %8 = alloca i32, align 4
  %9 = alloca i32, align 4
  store ptr %0, ptr %5, align 8, !tbaa !61
  store ptr %1, ptr %6, align 8, !tbaa !3
  store i64 %2, ptr %7, align 8, !tbaa !22
  call void @llvm.lifetime.start.p0(i64 4, ptr %8) #9
  br label %10

10:                                               ; preds = %3
  br label %11

11:                                               ; preds = %10
  br label %12

12:                                               ; preds = %11
  %13 = load ptr, ptr %5, align 8, !tbaa !61
  %14 = icmp eq ptr %13, null
  br i1 %14, label %18, label %15

15:                                               ; preds = %12
  %16 = load ptr, ptr %6, align 8, !tbaa !3
  %17 = icmp eq ptr %16, null
  br i1 %17, label %18, label %19

18:                                               ; preds = %15, %12
  store i32 -173, ptr %4, align 4
  store i32 1, ptr %9, align 4
  br label %33

19:                                               ; preds = %15
  %20 = call ptr @__errno_location() #11
  store i32 0, ptr %20, align 4, !tbaa !7
  %21 = load ptr, ptr %5, align 8, !tbaa !61
  %22 = load ptr, ptr %6, align 8, !tbaa !3
  %23 = load i64, ptr %7, align 8, !tbaa !22
  %24 = call i32 @SendData(ptr noundef %21, ptr noundef %22, i64 noundef %23)
  store i32 %24, ptr %8, align 4, !tbaa !7
  br label %25

25:                                               ; preds = %19
  br label %26

26:                                               ; preds = %25
  br label %27

27:                                               ; preds = %26
  %28 = load i32, ptr %8, align 4, !tbaa !7
  %29 = icmp slt i32 %28, 0
  br i1 %29, label %30, label %31

30:                                               ; preds = %27
  store i32 -1, ptr %4, align 4
  store i32 1, ptr %9, align 4
  br label %33

31:                                               ; preds = %27
  %32 = load i32, ptr %8, align 4, !tbaa !7
  store i32 %32, ptr %4, align 4
  store i32 1, ptr %9, align 4
  br label %33

33:                                               ; preds = %31, %30, %18
  call void @llvm.lifetime.end.p0(i64 4, ptr %8) #9
  %34 = load i32, ptr %4, align 4
  ret i32 %34
}

; Function Attrs: nounwind uwtable
define i32 @wolfSSL_writev(ptr noundef %0, ptr noundef %1, i32 noundef %2) #0 {
  %4 = alloca i32, align 4
  %5 = alloca ptr, align 8
  %6 = alloca ptr, align 8
  %7 = alloca i32, align 4
  %8 = alloca [1024 x i8], align 16
  %9 = alloca ptr, align 8
  %10 = alloca i32, align 4
  %11 = alloca i32, align 4
  %12 = alloca i32, align 4
  %13 = alloca i32, align 4
  %14 = alloca i32, align 4
  %15 = alloca i32, align 4
  %16 = alloca ptr, align 8
  store ptr %0, ptr %5, align 8, !tbaa !61
  store ptr %1, ptr %6, align 8, !tbaa !260
  store i32 %2, ptr %7, align 4, !tbaa !7
  call void @llvm.lifetime.start.p0(i64 1024, ptr %8) #9
  call void @llvm.lifetime.start.p0(i64 8, ptr %9) #9
  %17 = getelementptr inbounds [1024 x i8], ptr %8, i64 0, i64 0
  store ptr %17, ptr %9, align 8, !tbaa !21
  call void @llvm.lifetime.start.p0(i64 4, ptr %10) #9
  store i32 0, ptr %10, align 4, !tbaa !7
  call void @llvm.lifetime.start.p0(i64 4, ptr %11) #9
  store i32 0, ptr %11, align 4, !tbaa !7
  call void @llvm.lifetime.start.p0(i64 4, ptr %12) #9
  store i32 0, ptr %12, align 4, !tbaa !7
  call void @llvm.lifetime.start.p0(i64 4, ptr %13) #9
  call void @llvm.lifetime.start.p0(i64 4, ptr %14) #9
  br label %18

18:                                               ; preds = %3
  br label %19

19:                                               ; preds = %18
  br label %20

20:                                               ; preds = %19
  store i32 0, ptr %13, align 4, !tbaa !7
  br label %21

21:                                               ; preds = %36, %20
  %22 = load i32, ptr %13, align 4, !tbaa !7
  %23 = load i32, ptr %7, align 4, !tbaa !7
  %24 = icmp slt i32 %22, %23
  br i1 %24, label %25, label %39

25:                                               ; preds = %21
  %26 = load ptr, ptr %6, align 8, !tbaa !260
  %27 = load i32, ptr %13, align 4, !tbaa !7
  %28 = sext i32 %27 to i64
  %29 = getelementptr inbounds %struct.iovec, ptr %26, i64 %28
  %30 = getelementptr inbounds nuw %struct.iovec, ptr %29, i32 0, i32 1
  %31 = load i64, ptr %30, align 8, !tbaa !262
  %32 = load i32, ptr %11, align 4, !tbaa !7
  %33 = zext i32 %32 to i64
  %34 = add i64 %33, %31
  %35 = trunc i64 %34 to i32
  store i32 %35, ptr %11, align 4, !tbaa !7
  br label %36

36:                                               ; preds = %25
  %37 = load i32, ptr %13, align 4, !tbaa !7
  %38 = add nsw i32 %37, 1
  store i32 %38, ptr %13, align 4, !tbaa !7
  br label %21, !llvm.loop !264

39:                                               ; preds = %21
  %40 = load i32, ptr %11, align 4, !tbaa !7
  %41 = zext i32 %40 to i64
  %42 = icmp ugt i64 %41, 1024
  br i1 %42, label %43, label %51

43:                                               ; preds = %39
  %44 = load i32, ptr %11, align 4, !tbaa !7
  %45 = zext i32 %44 to i64
  %46 = call ptr @wolfSSL_Malloc(i64 noundef %45)
  store ptr %46, ptr %9, align 8, !tbaa !21
  %47 = load ptr, ptr %9, align 8, !tbaa !21
  %48 = icmp ne ptr %47, null
  br i1 %48, label %50, label %49

49:                                               ; preds = %43
  store i32 -303, ptr %4, align 4
  store i32 1, ptr %15, align 4
  br label %105

50:                                               ; preds = %43
  store i32 1, ptr %10, align 4, !tbaa !7
  br label %51

51:                                               ; preds = %50, %39
  store i32 0, ptr %13, align 4, !tbaa !7
  br label %52

52:                                               ; preds = %82, %51
  %53 = load i32, ptr %13, align 4, !tbaa !7
  %54 = load i32, ptr %7, align 4, !tbaa !7
  %55 = icmp slt i32 %53, %54
  br i1 %55, label %56, label %85

56:                                               ; preds = %52
  %57 = load ptr, ptr %9, align 8, !tbaa !21
  %58 = load i32, ptr %12, align 4, !tbaa !7
  %59 = sext i32 %58 to i64
  %60 = getelementptr inbounds i8, ptr %57, i64 %59
  %61 = load ptr, ptr %6, align 8, !tbaa !260
  %62 = load i32, ptr %13, align 4, !tbaa !7
  %63 = sext i32 %62 to i64
  %64 = getelementptr inbounds %struct.iovec, ptr %61, i64 %63
  %65 = getelementptr inbounds nuw %struct.iovec, ptr %64, i32 0, i32 0
  %66 = load ptr, ptr %65, align 8, !tbaa !265
  %67 = load ptr, ptr %6, align 8, !tbaa !260
  %68 = load i32, ptr %13, align 4, !tbaa !7
  %69 = sext i32 %68 to i64
  %70 = getelementptr inbounds %struct.iovec, ptr %67, i64 %69
  %71 = getelementptr inbounds nuw %struct.iovec, ptr %70, i32 0, i32 1
  %72 = load i64, ptr %71, align 8, !tbaa !262
  call void @llvm.memcpy.p0.p0.i64(ptr align 1 %60, ptr align 1 %66, i64 %72, i1 false)
  %73 = load ptr, ptr %6, align 8, !tbaa !260
  %74 = load i32, ptr %13, align 4, !tbaa !7
  %75 = sext i32 %74 to i64
  %76 = getelementptr inbounds %struct.iovec, ptr %73, i64 %75
  %77 = getelementptr inbounds nuw %struct.iovec, ptr %76, i32 0, i32 1
  %78 = load i64, ptr %77, align 8, !tbaa !262
  %79 = trunc i64 %78 to i32
  %80 = load i32, ptr %12, align 4, !tbaa !7
  %81 = add nsw i32 %80, %79
  store i32 %81, ptr %12, align 4, !tbaa !7
  br label %82

82:                                               ; preds = %56
  %83 = load i32, ptr %13, align 4, !tbaa !7
  %84 = add nsw i32 %83, 1
  store i32 %84, ptr %13, align 4, !tbaa !7
  br label %52, !llvm.loop !266

85:                                               ; preds = %52
  %86 = load ptr, ptr %5, align 8, !tbaa !61
  %87 = load ptr, ptr %9, align 8, !tbaa !21
  %88 = load i32, ptr %11, align 4, !tbaa !7
  %89 = zext i32 %88 to i64
  %90 = call i32 @wolfSSL_write_internal(ptr noundef %86, ptr noundef %87, i64 noundef %89)
  store i32 %90, ptr %14, align 4, !tbaa !7
  %91 = load i32, ptr %10, align 4, !tbaa !7
  %92 = icmp ne i32 %91, 0
  br i1 %92, label %93, label %103

93:                                               ; preds = %85
  br label %94

94:                                               ; preds = %93
  call void @llvm.lifetime.start.p0(i64 8, ptr %16) #9
  %95 = load ptr, ptr %9, align 8, !tbaa !21
  store ptr %95, ptr %16, align 8, !tbaa !3
  %96 = load ptr, ptr %16, align 8, !tbaa !3
  %97 = icmp ne ptr %96, null
  br i1 %97, label %98, label %100

98:                                               ; preds = %94
  %99 = load ptr, ptr %16, align 8, !tbaa !3
  call void @wolfSSL_Free(ptr noundef %99)
  br label %100

100:                                              ; preds = %98, %94
  call void @llvm.lifetime.end.p0(i64 8, ptr %16) #9
  br label %101

101:                                              ; preds = %100
  br label %102

102:                                              ; preds = %101
  br label %103

103:                                              ; preds = %102, %85
  %104 = load i32, ptr %14, align 4, !tbaa !7
  store i32 %104, ptr %4, align 4
  store i32 1, ptr %15, align 4
  br label %105

105:                                              ; preds = %103, %49
  call void @llvm.lifetime.end.p0(i64 4, ptr %14) #9
  call void @llvm.lifetime.end.p0(i64 4, ptr %13) #9
  call void @llvm.lifetime.end.p0(i64 4, ptr %12) #9
  call void @llvm.lifetime.end.p0(i64 4, ptr %11) #9
  call void @llvm.lifetime.end.p0(i64 4, ptr %10) #9
  call void @llvm.lifetime.end.p0(i64 8, ptr %9) #9
  call void @llvm.lifetime.end.p0(i64 1024, ptr %8) #9
  %106 = load i32, ptr %4, align 4
  ret i32 %106
}