; Function Attrs: nounwind uwtable
define range(i32 -303, -2147483648) i32 @wolfSSL_writev(ptr noundef %0, ptr noundef readonly captures(none) %1, i32 noundef %2) local_unnamed_addr #0 {
  %4 = alloca [1024 x i8], align 16
  call void @llvm.lifetime.start.p0(i64 1024, ptr nonnull %4) #22
  %5 = icmp sgt i32 %2, 0
  br i1 %5, label %.lr.ph.preheader, label %._crit_edge44

.lr.ph.preheader:                                 ; preds = %3
  %wide.trip.count = zext nneg i32 %2 to i64
  br label %.lr.ph

.lr.ph:                                           ; preds = %.lr.ph.preheader, %.lr.ph
  %indvars.iv = phi i64 [ 0, %.lr.ph.preheader ], [ %indvars.iv.next, %.lr.ph ]
  %.03238 = phi i32 [ 0, %.lr.ph.preheader ], [ %9, %.lr.ph ]
  %6 = getelementptr inbounds nuw %struct.iovec, ptr %1, i64 %indvars.iv, i32 1
  %7 = load i64, ptr %6, align 8, !tbaa !239
  %8 = trunc i64 %7 to i32
  %9 = add i32 %.03238, %8
  %indvars.iv.next = add nuw nsw i64 %indvars.iv, 1
  %exitcond.not = icmp eq i64 %indvars.iv.next, %wide.trip.count
  br i1 %exitcond.not, label %._crit_edge, label %.lr.ph, !llvm.loop !241

._crit_edge:                                      ; preds = %.lr.ph
  %10 = zext i32 %9 to i64
  %11 = icmp ult i32 %9, 1025
  br i1 %11, label %.lr.ph43.preheader, label %12

12:                                               ; preds = %._crit_edge
  %13 = tail call ptr @wolfSSL_Malloc(i64 noundef %10) #22
  %.not = icmp eq ptr %13, null
  br i1 %.not, label %30, label %.lr.ph43.preheader

.lr.ph43.preheader:                               ; preds = %._crit_edge, %12
  %.029 = phi ptr [ %4, %._crit_edge ], [ %13, %12 ]
  %wide.trip.count49 = zext nneg i32 %2 to i64
  br label %.lr.ph43

.lr.ph43:                                         ; preds = %.lr.ph43.preheader, %.lr.ph43
  %indvars.iv46 = phi i64 [ 0, %.lr.ph43.preheader ], [ %indvars.iv.next47, %.lr.ph43 ]
  %.03140 = phi i32 [ 0, %.lr.ph43.preheader ], [ %22, %.lr.ph43 ]
  %14 = sext i32 %.03140 to i64
  %15 = getelementptr inbounds i8, ptr %.029, i64 %14
  %16 = getelementptr inbounds nuw %struct.iovec, ptr %1, i64 %indvars.iv46
  %17 = load ptr, ptr %16, align 8, !tbaa !242
  %18 = getelementptr inbounds nuw i8, ptr %16, i64 8
  %19 = load i64, ptr %18, align 8, !tbaa !239
  call void @llvm.memcpy.p0.p0.i64(ptr nonnull align 1 %15, ptr align 1 %17, i64 %19, i1 false)
  %20 = load i64, ptr %18, align 8, !tbaa !239
  %21 = trunc i64 %20 to i32
  %22 = add nsw i32 %.03140, %21
  %indvars.iv.next47 = add nuw nsw i64 %indvars.iv46, 1
  %exitcond50.not = icmp eq i64 %indvars.iv.next47, %wide.trip.count49
  br i1 %exitcond50.not, label %._crit_edge44, label %.lr.ph43, !llvm.loop !243

._crit_edge44:                                    ; preds = %.lr.ph43, %3
  %.02953 = phi ptr [ %4, %3 ], [ %.029, %.lr.ph43 ]
  %23 = phi i64 [ 0, %3 ], [ %10, %.lr.ph43 ]
  %24 = phi i1 [ true, %3 ], [ %11, %.lr.ph43 ]
  %25 = icmp eq ptr %0, null
  br i1 %25, label %wolfSSL_write_internal.exit, label %26

26:                                               ; preds = %._crit_edge44
  %27 = tail call ptr @__errno_location() #24
  store i32 0, ptr %27, align 4, !tbaa !3
  %28 = call i32 @SendData(ptr noundef nonnull %0, ptr noundef nonnull %.02953, i64 noundef %23) #22
  %..i = call i32 @llvm.smax.i32(i32 %28, i32 -1)
  br label %wolfSSL_write_internal.exit

wolfSSL_write_internal.exit:                      ; preds = %._crit_edge44, %26
  %.0.i = phi i32 [ -173, %._crit_edge44 ], [ %..i, %26 ]
  br i1 %24, label %30, label %29

29:                                               ; preds = %wolfSSL_write_internal.exit
  call void @wolfSSL_Free(ptr noundef nonnull %.02953) #22
  br label %30

30:                                               ; preds = %wolfSSL_write_internal.exit, %29, %12
  %.0 = phi i32 [ -303, %12 ], [ %.0.i, %29 ], [ %.0.i, %wolfSSL_write_internal.exit ]
  call void @llvm.lifetime.end.p0(i64 1024, ptr nonnull %4) #22
  ret i32 %.0
}